target datalayout = "e-m:e-p270:32:32-p271:32:32-p272:64:64-i64:64-i128:128-f80:128-n8:16:32:64-S128"
target triple = "x86_64-pc-linux-gnu"

%struct.ARG_list = type { ptr, i8, [0 x i8] }

; Function Attrs: inlinehint mustprogress nounwind willreturn memory(read) uwtable
define available_externally i32 @isspace(i32 noundef %0) #5 {
  %2 = alloca i32, align 4
  store i32 %0, ptr %2, align 4, !tbaa !23
  %3 = call ptr @__ctype_b_loc() #17
  %4 = load ptr, ptr %3, align 8, !tbaa !25
  %5 = load i32, ptr %2, align 4, !tbaa !23
  %6 = sext i32 %5 to i64
  %7 = getelementptr inbounds i16, ptr %4, i64 %6
  %8 = load i16, ptr %7, align 2, !tbaa !27
  %9 = zext i16 %8 to i32
  %10 = and i32 %9, 8192
  ret i32 %10
}

; Function Attrs: mustprogress nounwind uwtable
define hidden noundef ptr @_Z13pj_mkparam_wsPKcPS0_(ptr noundef %0, ptr noundef %1) #0 {
  %3 = alloca ptr, align 8
  %4 = alloca ptr, align 8
  %5 = alloca ptr, align 8
  %6 = alloca ptr, align 8
  %7 = alloca i64, align 8
  %8 = alloca i32, align 4
  %9 = alloca i8, align 1
  store ptr %0, ptr %4, align 8, !tbaa !3
  store ptr %1, ptr %5, align 8, !tbaa !11
  call void @llvm.lifetime.start.p0(i64 8, ptr %6) #13
  call void @llvm.lifetime.start.p0(i64 8, ptr %7) #13
  store i64 0, ptr %7, align 8, !tbaa !14
  %10 = load ptr, ptr %4, align 8, !tbaa !3
  %11 = icmp eq ptr null, %10
  br i1 %11, label %12, label %13

12:                                               ; preds = %2
  store ptr null, ptr %3, align 8
  store i32 1, ptr %8, align 4
  br label %129

13:                                               ; preds = %2
  br label %14

14:                                               ; preds = %20, %13
  %15 = load ptr, ptr %4, align 8, !tbaa !3
  %16 = load i8, ptr %15, align 1, !tbaa !10
  %17 = sext i8 %16 to i32
  %18 = call i32 @isspace(i32 noundef %17) #14
  %19 = icmp ne i32 %18, 0
  br i1 %19, label %20, label %23

20:                                               ; preds = %14
  %21 = load ptr, ptr %4, align 8, !tbaa !3
  %22 = getelementptr inbounds nuw i8, ptr %21, i32 1
  store ptr %22, ptr %4, align 8, !tbaa !3
  br label %14, !llvm.loop !16

23:                                               ; preds = %14
  %24 = load ptr, ptr %4, align 8, !tbaa !3
  %25 = load i8, ptr %24, align 1, !tbaa !10
  %26 = sext i8 %25 to i32
  %27 = icmp eq i32 %26, 43
  br i1 %27, label %28, label %31

28:                                               ; preds = %23
  %29 = load ptr, ptr %4, align 8, !tbaa !3
  %30 = getelementptr inbounds nuw i8, ptr %29, i32 1
  store ptr %30, ptr %4, align 8, !tbaa !3
  br label %31

31:                                               ; preds = %28, %23
  call void @llvm.lifetime.start.p0(i64 1, ptr %9) #13
  store i8 0, ptr %9, align 1, !tbaa !18
  br label %32

32:                                               ; preds = %98, %31
  %33 = load ptr, ptr %4, align 8, !tbaa !3
  %34 = load i64, ptr %7, align 8, !tbaa !14
  %35 = getelementptr inbounds nuw i8, ptr %33, i64 %34
  %36 = load i8, ptr %35, align 1, !tbaa !10
  %37 = sext i8 %36 to i32
  %38 = icmp ne i32 %37, 0
  br i1 %38, label %39, label %101

39:                                               ; preds = %32
  %40 = load i8, ptr %9, align 1, !tbaa !18, !range !20, !noundef !21
  %41 = trunc i8 %40 to i1
  br i1 %41, label %42, label %70

42:                                               ; preds = %39
  %43 = load ptr, ptr %4, align 8, !tbaa !3
  %44 = load i64, ptr %7, align 8, !tbaa !14
  %45 = getelementptr inbounds nuw i8, ptr %43, i64 %44
  %46 = load i8, ptr %45, align 1, !tbaa !10
  %47 = sext i8 %46 to i32
  %48 = icmp eq i32 %47, 34
  br i1 %48, label %49, label %60

49:                                               ; preds = %42
  %50 = load ptr, ptr %4, align 8, !tbaa !3
  %51 = load i64, ptr %7, align 8, !tbaa !14
  %52 = add i64 %51, 1
  %53 = getelementptr inbounds nuw i8, ptr %50, i64 %52
  %54 = load i8, ptr %53, align 1, !tbaa !10
  %55 = sext i8 %54 to i32
  %56 = icmp eq i32 %55, 34
  br i1 %56, label %57, label %60

57:                                               ; preds = %49
  %58 = load i64, ptr %7, align 8, !tbaa !14
  %59 = add i64 %58, 1
  store i64 %59, ptr %7, align 8, !tbaa !14
  br label %69

60:                                               ; preds = %49, %42
  %61 = load ptr, ptr %4, align 8, !tbaa !3
  %62 = load i64, ptr %7, align 8, !tbaa !14
  %63 = getelementptr inbounds nuw i8, ptr %61, i64 %62
  %64 = load i8, ptr %63, align 1, !tbaa !10
  %65 = sext i8 %64 to i32
  %66 = icmp eq i32 %65, 34
  br i1 %66, label %67, label %68

67:                                               ; preds = %60
  store i8 0, ptr %9, align 1, !tbaa !18
  br label %68

68:                                               ; preds = %67, %60
  br label %69

69:                                               ; preds = %68, %57
  br label %97

70:                                               ; preds = %39
  %71 = load ptr, ptr %4, align 8, !tbaa !3
  %72 = load i64, ptr %7, align 8, !tbaa !14
  %73 = getelementptr inbounds nuw i8, ptr %71, i64 %72
  %74 = load i8, ptr %73, align 1, !tbaa !10
  %75 = sext i8 %74 to i32
  %76 = icmp eq i32 %75, 61
  br i1 %76, label %77, label %86

77:                                               ; preds = %70
  %78 = load ptr, ptr %4, align 8, !tbaa !3
  %79 = load i64, ptr %7, align 8, !tbaa !14
  %80 = add i64 %79, 1
  %81 = getelementptr inbounds nuw i8, ptr %78, i64 %80
  %82 = load i8, ptr %81, align 1, !tbaa !10
  %83 = sext i8 %82 to i32
  %84 = icmp eq i32 %83, 34
  br i1 %84, label %85, label %86

85:                                               ; preds = %77
  store i8 1, ptr %9, align 1, !tbaa !18
  br label %96

86:                                               ; preds = %77, %70
  %87 = load ptr, ptr %4, align 8, !tbaa !3
  %88 = load i64, ptr %7, align 8, !tbaa !14
  %89 = getelementptr inbounds nuw i8, ptr %87, i64 %88
  %90 = load i8, ptr %89, align 1, !tbaa !10
  %91 = sext i8 %90 to i32
  %92 = call i32 @isspace(i32 noundef %91) #14
  %93 = icmp ne i32 %92, 0
  br i1 %93, label %94, label %95

94:                                               ; preds = %86
  br label %101

95:                                               ; preds = %86
  br label %96

96:                                               ; preds = %95, %85
  br label %97

97:                                               ; preds = %96, %69
  br label %98

98:                                               ; preds = %97
  %99 = load i64, ptr %7, align 8, !tbaa !14
  %100 = add i64 %99, 1
  store i64 %100, ptr %7, align 8, !tbaa !14
  br label %32, !llvm.loop !22

101:                                              ; preds = %94, %32
  %102 = load ptr, ptr %5, align 8, !tbaa !11
  %103 = icmp ne ptr %102, null
  br i1 %103, label %104, label %109

104:                                              ; preds = %101
  %105 = load ptr, ptr %4, align 8, !tbaa !3
  %106 = load i64, ptr %7, align 8, !tbaa !14
  %107 = getelementptr inbounds nuw i8, ptr %105, i64 %106
  %108 = load ptr, ptr %5, align 8, !tbaa !11
  store ptr %107, ptr %108, align 8, !tbaa !3
  br label %109

109:                                              ; preds = %104, %101
  %110 = load i64, ptr %7, align 8, !tbaa !14
  %111 = add i64 16, %110
  %112 = add i64 %111, 1
  %113 = call noalias ptr @calloc(i64 noundef 1, i64 noundef %112) #16
  store ptr %113, ptr %6, align 8, !tbaa !8
  %114 = load ptr, ptr %6, align 8, !tbaa !8
  %115 = icmp eq ptr null, %114
  br i1 %115, label %116, label %117

116:                                              ; preds = %109
  store ptr null, ptr %3, align 8
  store i32 1, ptr %8, align 4
  br label %128

117:                                              ; preds = %109
  %118 = load ptr, ptr %6, align 8, !tbaa !8
  %119 = getelementptr inbounds nuw %struct.ARG_list, ptr %118, i32 0, i32 2
  %120 = getelementptr inbounds [0 x i8], ptr %119, i64 0, i64 0
  %121 = load ptr, ptr %4, align 8, !tbaa !3
  %122 = load i64, ptr %7, align 8, !tbaa !14
  call void @llvm.memcpy.p0.p0.i64(ptr align 1 %120, ptr align 1 %121, i64 %122, i1 false)
  %123 = load ptr, ptr %6, align 8, !tbaa !8
  %124 = getelementptr inbounds nuw %struct.ARG_list, ptr %123, i32 0, i32 1
  store i8 0, ptr %124, align 8, !tbaa !10
  %125 = load ptr, ptr %6, align 8, !tbaa !8
  %126 = getelementptr inbounds nuw %struct.ARG_list, ptr %125, i32 0, i32 0
  store ptr null, ptr %126, align 8, !tbaa !8
  %127 = load ptr, ptr %6, align 8, !tbaa !8
  store ptr %127, ptr %3, align 8
  store i32 1, ptr %8, align 4
  br label %128

128:                                              ; preds = %117, %116
  call void @llvm.lifetime.end.p0(i64 1, ptr %9) #13
  br label %129

129:                                              ; preds = %128, %12
  call void @llvm.lifetime.end.p0(i64 8, ptr %7) #13
  call void @llvm.lifetime.end.p0(i64 8, ptr %6) #13
  %130 = load ptr, ptr %3, align 8
  ret ptr %130
}